target datalayout = "e-m:e-p270:32:32-p271:32:32-p272:64:64-i64:64-i128:128-f80:128-n8:16:32:64-S128"
target triple = "x86_64-pc-linux-gnu"

; Function Attrs: nounwind uwtable
define i32 @wc_DhAgree(ptr noundef %0, ptr noundef %1, ptr noundef %2, ptr noundef %3, i32 noundef %4, ptr noundef %5, i32 noundef %6) #0 {
  %8 = alloca i32, align 4
  %9 = alloca ptr, align 8
  %10 = alloca ptr, align 8
  %11 = alloca ptr, align 8
  %12 = alloca ptr, align 8
  %13 = alloca i32, align 4
  %14 = alloca ptr, align 8
  %15 = alloca i32, align 4
  %16 = alloca i32, align 4
  %17 = alloca i32, align 4
  store ptr %0, ptr %9, align 8, !tbaa !3
  store ptr %1, ptr %10, align 8, !tbaa !16
  store ptr %2, ptr %11, align 8, !tbaa !29
  store ptr %3, ptr %12, align 8, !tbaa !16
  store i32 %4, ptr %13, align 4, !tbaa !9
  store ptr %5, ptr %14, align 8, !tbaa !16
  store i32 %6, ptr %15, align 4, !tbaa !9
  call void @llvm.lifetime.start.p0(i64 4, ptr %16) #9
  store i32 0, ptr %16, align 4, !tbaa !9
  %18 = load ptr, ptr %9, align 8, !tbaa !3
  %19 = icmp eq ptr %18, null
  br i1 %19, label %32, label %20

20:                                               ; preds = %7
  %21 = load ptr, ptr %10, align 8, !tbaa !16
  %22 = icmp eq ptr %21, null
  br i1 %22, label %32, label %23

23:                                               ; preds = %20
  %24 = load ptr, ptr %11, align 8, !tbaa !29
  %25 = icmp eq ptr %24, null
  br i1 %25, label %32, label %26

26:                                               ; preds = %23
  %27 = load ptr, ptr %12, align 8, !tbaa !16
  %28 = icmp eq ptr %27, null
  br i1 %28, label %32, label %29

29:                                               ; preds = %26
  %30 = load ptr, ptr %14, align 8, !tbaa !16
  %31 = icmp eq ptr %30, null
  br i1 %31, label %32, label %33

32:                                               ; preds = %29, %26, %23, %20, %7
  store i32 -173, ptr %8, align 4
  store i32 1, ptr %17, align 4
  br label %43

33:                                               ; preds = %29
  %34 = load ptr, ptr %9, align 8, !tbaa !3
  %35 = load ptr, ptr %10, align 8, !tbaa !16
  %36 = load ptr, ptr %11, align 8, !tbaa !29
  %37 = load ptr, ptr %12, align 8, !tbaa !16
  %38 = load i32, ptr %13, align 4, !tbaa !9
  %39 = load ptr, ptr %14, align 8, !tbaa !16
  %40 = load i32, ptr %15, align 4, !tbaa !9
  %41 = call i32 @wc_DhAgree_Sync(ptr noundef %34, ptr noundef %35, ptr noundef %36, ptr noundef %37, i32 noundef %38, ptr noundef %39, i32 noundef %40, i32 noundef 0)
  store i32 %41, ptr %16, align 4, !tbaa !9
  %42 = load i32, ptr %16, align 4, !tbaa !9
  store i32 %42, ptr %8, align 4
  store i32 1, ptr %17, align 4
  br label %43

43:                                               ; preds = %33, %32
  call void @llvm.lifetime.end.p0(i64 4, ptr %16) #9
  %44 = load i32, ptr %8, align 4
  ret i32 %44
}