; Function Attrs: nounwind uwtable
define i32 @wc_DhAgree(ptr noundef %0, ptr noundef %1, ptr noundef captures(address_is_null) %2, ptr noundef %3, i32 noundef %4, ptr noundef %5, i32 noundef %6) local_unnamed_addr #1 {
  %8 = icmp eq ptr %0, null
  %9 = icmp eq ptr %1, null
  %or.cond = or i1 %8, %9
  %10 = icmp eq ptr %2, null
  %or.cond3 = or i1 %or.cond, %10
  %11 = icmp eq ptr %3, null
  %or.cond5 = or i1 %or.cond3, %11
  %12 = icmp eq ptr %5, null
  %or.cond7 = or i1 %or.cond5, %12
  br i1 %or.cond7, label %15, label %13

13:                                               ; preds = %7
  %14 = tail call fastcc i32 @wc_DhAgree_Sync(ptr noundef %0, ptr noundef %1, ptr noundef %2, ptr noundef %3, i32 noundef %4, ptr noundef nonnull %5, i32 noundef %6, i32 noundef 0)
  br label %15

15:                                               ; preds = %7, %13
  %.0 = phi i32 [ %14, %13 ], [ -173, %7 ]
  ret i32 %.0
}